target datalayout = "e-m:e-p270:32:32-p271:32:32-p272:64:64-i64:64-i128:128-f80:128-n8:16:32:64-S128"
target triple = "x86_64-pc-linux-gnu"

%struct._dcerpc_info = type { ptr, i32, i64, i8, i32, i32, i32, i32, i32, i32, i32, i32, i32, i32, ptr, ptr, ptr }

@.str.245 = private unnamed_addr constant [18 x i8] c": (No values set)\00", align 1
@.str.246 = private unnamed_addr constant [26 x i8] c"Unknown bitmap value 0x%x\00", align 1
@ett_drsuapi_drsuapi_DrsUpdate = internal global i32 -1, align 4

; Function Attrs: nounwind uwtable
define hidden i32 @drsuapi_dissect_bitmap_DrsUpdate(ptr noundef %0, i32 noundef %1, ptr noundef %2, ptr noundef %3, ptr noundef %4, ptr noundef %5, i32 noundef %6, i32 noundef %7) #0 {
  %9 = alloca ptr, align 8
  %10 = alloca i32, align 4
  %11 = alloca ptr, align 8
  %12 = alloca ptr, align 8
  %13 = alloca ptr, align 8
  %14 = alloca ptr, align 8
  %15 = alloca i32, align 4
  %16 = alloca i32, align 4
  %17 = alloca ptr, align 8
  %18 = alloca i32, align 4
  store ptr %0, ptr %9, align 8
  store i32 %1, ptr %10, align 4
  store ptr %2, ptr %11, align 8
  store ptr %3, ptr %12, align 8
  store ptr %4, ptr %13, align 8
  store ptr %5, ptr %14, align 8
  store i32 %6, ptr %15, align 4
  store i32 %7, ptr %16, align 4
  %19 = load ptr, ptr %13, align 8
  %20 = getelementptr inbounds %struct._dcerpc_info, ptr %19, i32 0, i32 4
  %21 = load i32, ptr %20, align 4
  %22 = icmp ne i32 %21, 0
  br i1 %22, label %32, label %23

23:                                               ; preds = %8
  %24 = load i32, ptr %10, align 4
  %25 = and i32 %24, 3
  %26 = icmp ne i32 %25, 0
  br i1 %26, label %27, label %31

27:                                               ; preds = %23
  %28 = load i32, ptr %10, align 4
  %29 = and i32 %28, -4
  %30 = add i32 %29, 4
  store i32 %30, ptr %10, align 4
  br label %31

31:                                               ; preds = %27, %23
  br label %32

32:                                               ; preds = %31, %8
  %33 = load ptr, ptr %12, align 8
  %34 = load ptr, ptr %9, align 8
  %35 = load i32, ptr %10, align 4
  %36 = load i32, ptr %15, align 4
  %37 = load i32, ptr @ett_drsuapi_drsuapi_DrsUpdate, align 4
  %38 = load ptr, ptr %14, align 8
  %39 = getelementptr i8, ptr %38, i64 0
  %40 = load i8, ptr %39, align 1
  %41 = zext i8 %40 to i32
  %42 = and i32 %41, 16
  %43 = icmp ne i32 %42, 0
  %44 = select i1 %43, i32 -2147483648, i32 0
  %45 = call ptr @proto_tree_add_bitmask_with_flags(ptr noundef %33, ptr noundef %34, i32 noundef %35, i32 noundef %36, i32 noundef %37, ptr noundef @drsuapi_dissect_bitmap_DrsUpdate.drsuapi_drsuapi_DrsUpdate_fields, i32 noundef %44, i32 noundef 4)
  store ptr %45, ptr %17, align 8
  %46 = load ptr, ptr %9, align 8
  %47 = load i32, ptr %10, align 4
  %48 = load ptr, ptr %11, align 8
  %49 = load ptr, ptr %12, align 8
  %50 = load ptr, ptr %13, align 8
  %51 = load ptr, ptr %14, align 8
  %52 = call i32 @dissect_ndr_uint32(ptr noundef %46, i32 noundef %47, ptr noundef %48, ptr noundef %49, ptr noundef %50, ptr noundef %51, i32 noundef -1, ptr noundef %18)
  store i32 %52, ptr %10, align 4
  %53 = load i32, ptr %18, align 4
  %54 = icmp ne i32 %53, 0
  br i1 %54, label %57, label %55

55:                                               ; preds = %32
  %56 = load ptr, ptr %17, align 8
  call void (ptr, ptr, ...) @proto_item_append_text(ptr noundef %56, ptr noundef @.str.245)
  br label %57

57:                                               ; preds = %55, %32
  %58 = load i32, ptr %18, align 4
  %59 = and i32 %58, -8
  %60 = icmp ne i32 %59, 0
  br i1 %60, label %61, label %66

61:                                               ; preds = %57
  %62 = load i32, ptr %18, align 4
  %63 = and i32 %62, -8
  store i32 %63, ptr %18, align 4
  %64 = load ptr, ptr %17, align 8
  %65 = load i32, ptr %18, align 4
  call void (ptr, ptr, ...) @proto_item_append_text(ptr noundef %64, ptr noundef @.str.246, i32 noundef %65)
  br label %66

66:                                               ; preds = %61, %57
  %67 = load i32, ptr %10, align 4
  ret i32 %67
}